; Function Attrs: mustprogress uwtable
define void @_ZN6duckdb11StructStats4CopyERNS_14BaseStatisticsERKS1_(ptr noundef nonnull align 8 dereferenceable(88) %0, ptr noundef nonnull readonly align 8 captures(none) dereferenceable(88) %1) local_unnamed_addr #3 align 2 {
  %3 = tail call noundef i64 @_ZN6duckdb10StructType13GetChildCountERKNS_11LogicalTypeE(ptr noundef nonnull align 8 dereferenceable(24) %0)
  %.not = icmp eq i64 %3, 0
  br i1 %.not, label %._crit_edge, label %.lr.ph

.lr.ph:                                           ; preds = %2
  %4 = getelementptr inbounds nuw i8, ptr %0, i64 80
  %5 = getelementptr inbounds nuw i8, ptr %1, i64 80
  br label %6

._crit_edge:                                      ; preds = %6, %2
  ret void

6:                                                ; preds = %.lr.ph, %6
  %.07 = phi i64 [ 0, %.lr.ph ], [ %11, %6 ]
  %7 = load ptr, ptr %4, align 8, !tbaa !33
  %8 = getelementptr inbounds nuw %"class.duckdb::BaseStatistics", ptr %7, i64 %.07
  %9 = load ptr, ptr %5, align 8, !tbaa !33
  %10 = getelementptr inbounds nuw %"class.duckdb::BaseStatistics", ptr %9, i64 %.07
  tail call void @_ZN6duckdb14BaseStatistics4CopyERKS0_(ptr noundef nonnull align 8 dereferenceable(88) %8, ptr noundef nonnull align 8 dereferenceable(88) %10)
  %11 = add nuw i64 %.07, 1
  %exitcond.not = icmp eq i64 %11, %3
  br i1 %exitcond.not, label %._crit_edge, label %6, !llvm.loop !82
}